target datalayout = "e-m:e-p270:32:32-p271:32:32-p272:64:64-i64:64-i128:128-f80:128-n8:16:32:64-S128"
target triple = "x86_64-pc-linux-gnu"

%union.pthread_mutex_t = type { %struct.__pthread_mutex_s }
%struct.__pthread_mutex_s = type { i32, i32, i32, i32, i32, i16, i16, %struct.__pthread_internal_list }
%struct.__pthread_internal_list = type { ptr, ptr }
%struct.cl_fmap = type { ptr, ptr, ptr, i64, i64, i64, i64, i8, i8, i8, i64, i64, i64, i64, ptr, ptr, ptr, ptr, ptr, ptr, ptr, i8, [16 x i8], i8, [20 x i8], i8, [32 x i8], ptr, ptr }

@fmap_mutex = global %union.pthread_mutex_t zeroinitializer, align 8
@.str.30 = private unnamed_addr constant [72 x i8] c"funmap: unable to unmap memory segment at address: %p with length: %zu\0A\00", align 1

; Function Attrs: nounwind uwtable
define internal void @unmap_mmap(ptr noundef %0) #0 {
  %2 = alloca ptr, align 8
  %3 = alloca i64, align 8
  store ptr %0, ptr %2, align 8
  %4 = load ptr, ptr %2, align 8
  %5 = getelementptr inbounds %struct.cl_fmap, ptr %4, i32 0, i32 4
  %6 = load i64, ptr %5, align 8
  %7 = load ptr, ptr %2, align 8
  %8 = getelementptr inbounds %struct.cl_fmap, ptr %7, i32 0, i32 5
  %9 = load i64, ptr %8, align 8
  %10 = mul i64 %6, %9
  store i64 %10, ptr %3, align 8
  %11 = call i32 @pthread_mutex_lock(ptr noundef @fmap_mutex) #8
  %12 = load ptr, ptr %2, align 8
  %13 = getelementptr inbounds %struct.cl_fmap, ptr %12, i32 0, i32 2
  %14 = load ptr, ptr %13, align 8
  %15 = load i64, ptr %3, align 8
  %16 = call i32 @munmap(ptr noundef %14, i64 noundef %15) #8
  %17 = icmp eq i32 %16, -1
  br i1 %17, label %18, label %23

18:                                               ; preds = %1
  %19 = load ptr, ptr %2, align 8
  %20 = getelementptr inbounds %struct.cl_fmap, ptr %19, i32 0, i32 2
  %21 = load ptr, ptr %20, align 8
  %22 = load i64, ptr %3, align 8
  call void (ptr, ...) @cli_warnmsg(ptr noundef @.str.30, ptr noundef %21, i64 noundef %22)
  br label %23

23:                                               ; preds = %18, %1
  %24 = call i32 @pthread_mutex_unlock(ptr noundef @fmap_mutex) #8
  ret void
}

; Function Attrs: nounwind uwtable
define internal void @unmap_handle(ptr noundef %0) #0 {
  %2 = alloca ptr, align 8
  store ptr %0, ptr %2, align 8
  %3 = load ptr, ptr %2, align 8
  %4 = icmp ne ptr null, %3
  br i1 %4, label %5, label %46

5:                                                ; preds = %1
  %6 = load ptr, ptr %2, align 8
  %7 = getelementptr inbounds %struct.cl_fmap, ptr %6, i32 0, i32 2
  %8 = load ptr, ptr %7, align 8
  %9 = icmp ne ptr null, %8
  br i1 %9, label %10, label %24

10:                                               ; preds = %5
  %11 = load ptr, ptr %2, align 8
  %12 = getelementptr inbounds %struct.cl_fmap, ptr %11, i32 0, i32 7
  %13 = load i8, ptr %12, align 8
  %14 = trunc i8 %13 to i1
  br i1 %14, label %15, label %17

15:                                               ; preds = %10
  %16 = load ptr, ptr %2, align 8
  call void @unmap_mmap(ptr noundef %16)
  br label %21

17:                                               ; preds = %10
  %18 = load ptr, ptr %2, align 8
  %19 = getelementptr inbounds %struct.cl_fmap, ptr %18, i32 0, i32 2
  %20 = load ptr, ptr %19, align 8
  call void @free(ptr noundef %20) #8
  br label %21

21:                                               ; preds = %17, %15
  %22 = load ptr, ptr %2, align 8
  %23 = getelementptr inbounds %struct.cl_fmap, ptr %22, i32 0, i32 2
  store ptr null, ptr %23, align 8
  br label %24

24:                                               ; preds = %21, %5
  %25 = load ptr, ptr %2, align 8
  %26 = getelementptr inbounds %struct.cl_fmap, ptr %25, i32 0, i32 27
  %27 = load ptr, ptr %26, align 8
  %28 = icmp ne ptr null, %27
  br i1 %28, label %29, label %35

29:                                               ; preds = %24
  %30 = load ptr, ptr %2, align 8
  %31 = getelementptr inbounds %struct.cl_fmap, ptr %30, i32 0, i32 27
  %32 = load ptr, ptr %31, align 8
  call void @free(ptr noundef %32) #8
  %33 = load ptr, ptr %2, align 8
  %34 = getelementptr inbounds %struct.cl_fmap, ptr %33, i32 0, i32 27
  store ptr null, ptr %34, align 8
  br label %35

35:                                               ; preds = %29, %24
  %36 = load ptr, ptr %2, align 8
  %37 = getelementptr inbounds %struct.cl_fmap, ptr %36, i32 0, i32 28
  %38 = load ptr, ptr %37, align 8
  %39 = icmp ne ptr null, %38
  br i1 %39, label %40, label %44

40:                                               ; preds = %35
  %41 = load ptr, ptr %2, align 8
  %42 = getelementptr inbounds %struct.cl_fmap, ptr %41, i32 0, i32 28
  %43 = load ptr, ptr %42, align 8
  call void @free(ptr noundef %43) #8
  br label %44

44:                                               ; preds = %40, %35
  %45 = load ptr, ptr %2, align 8
  call void @free(ptr noundef %45) #8
  br label %46

46:                                               ; preds = %44, %1
  ret void
}