; Function Attrs: nounwind uwtable
define internal void @unmap_handle(ptr noundef %0) #0 {
  %.not = icmp eq ptr %0, null
  br i1 %.not, label %33, label %2

2:                                                ; preds = %1
  %3 = getelementptr inbounds i8, ptr %0, i64 16
  %4 = load ptr, ptr %3, align 8
  %.not15 = icmp eq ptr %4, null
  br i1 %.not15, label %24, label %5

5:                                                ; preds = %2
  %6 = getelementptr inbounds i8, ptr %0, i64 56
  %7 = load i8, ptr %6, align 8
  %8 = trunc i8 %7 to i1
  br i1 %8, label %9, label %22

9:                                                ; preds = %5
  %10 = getelementptr inbounds i8, ptr %0, i64 32
  %11 = load i64, ptr %10, align 8
  %12 = getelementptr inbounds i8, ptr %0, i64 40
  %13 = load i64, ptr %12, align 8
  %14 = mul i64 %13, %11
  %15 = tail call i32 @pthread_mutex_lock(ptr noundef nonnull @fmap_mutex) #18
  %16 = load ptr, ptr %3, align 8
  %17 = tail call i32 @munmap(ptr noundef %16, i64 noundef %14) #18
  %18 = icmp eq i32 %17, -1
  br i1 %18, label %19, label %unmap_mmap.exit

19:                                               ; preds = %9
  %20 = load ptr, ptr %3, align 8
  tail call void (ptr, ...) @cli_warnmsg(ptr noundef nonnull @.str.30, ptr noundef %20, i64 noundef %14) #18
  br label %unmap_mmap.exit

unmap_mmap.exit:                                  ; preds = %9, %19
  %21 = tail call i32 @pthread_mutex_unlock(ptr noundef nonnull @fmap_mutex) #18
  br label %23

22:                                               ; preds = %5
  tail call void @free(ptr noundef nonnull %4) #18
  br label %23

23:                                               ; preds = %22, %unmap_mmap.exit
  store ptr null, ptr %3, align 8
  br label %24

24:                                               ; preds = %23, %2
  %25 = getelementptr inbounds i8, ptr %0, i64 224
  %26 = load ptr, ptr %25, align 8
  %.not16 = icmp eq ptr %26, null
  br i1 %.not16, label %28, label %27

27:                                               ; preds = %24
  tail call void @free(ptr noundef nonnull %26) #18
  store ptr null, ptr %25, align 8
  br label %28

28:                                               ; preds = %27, %24
  %29 = getelementptr inbounds i8, ptr %0, i64 232
  %30 = load ptr, ptr %29, align 8
  %.not17 = icmp eq ptr %30, null
  br i1 %.not17, label %32, label %31

31:                                               ; preds = %28
  tail call void @free(ptr noundef nonnull %30) #18
  br label %32

32:                                               ; preds = %31, %28
  tail call void @free(ptr noundef nonnull %0) #18
  br label %33

33:                                               ; preds = %32, %1
  ret void
}